; Function Attrs: mustprogress uwtable
define void @_ZN7jsonnet8internal12CompilerPass5visitEPNS0_15DesugaredObjectE(ptr noundef nonnull align 8 dereferenceable(16) %0, ptr noundef readonly %1) unnamed_addr #4 align 2 personality ptr @__gxx_personality_v0 {
  %3 = alloca ptr, align 8
  %4 = getelementptr inbounds nuw i8, ptr %1, i64 128
  %.sroa.013.017 = load ptr, ptr %4, align 8, !tbaa !88
  %.not18 = icmp eq ptr %.sroa.013.017, %4
  br i1 %.not18, label %._crit_edge, label %.lr.ph

._crit_edge:                                      ; preds = %.lr.ph, %2
  %5 = getelementptr inbounds nuw i8, ptr %1, i64 152
  %6 = load ptr, ptr %5, align 8, !tbaa !91
  %7 = getelementptr inbounds nuw i8, ptr %1, i64 160
  %8 = load ptr, ptr %7, align 8, !tbaa !91
  %.not1620 = icmp eq ptr %6, %8
  br i1 %.not1620, label %._crit_edge24, label %.lr.ph23

.lr.ph:                                           ; preds = %2, %.lr.ph
  %.sroa.013.019 = phi ptr [ %.sroa.013.0, %.lr.ph ], [ %.sroa.013.017, %2 ]
  call void @llvm.lifetime.start.p0(i64 8, ptr nonnull %3) #22
  %9 = getelementptr inbounds nuw i8, ptr %.sroa.013.019, i64 16
  %10 = load ptr, ptr %9, align 8, !tbaa !54
  store ptr %10, ptr %3, align 8, !tbaa !54
  %11 = load ptr, ptr %0, align 8, !tbaa !17
  %12 = getelementptr inbounds nuw i8, ptr %11, i64 48
  %13 = load ptr, ptr %12, align 8
  call void %13(ptr noundef nonnull align 8 dereferenceable(16) %0, ptr noundef nonnull align 8 dereferenceable(8) %3)
  call void @llvm.lifetime.end.p0(i64 8, ptr nonnull %3) #22
  %.sroa.013.0 = load ptr, ptr %.sroa.013.019, align 8, !tbaa !88
  %.not = icmp eq ptr %.sroa.013.0, %4
  br i1 %.not, label %._crit_edge, label %.lr.ph

._crit_edge24:                                    ; preds = %.lr.ph23, %._crit_edge
  ret void

.lr.ph23:                                         ; preds = %._crit_edge, %.lr.ph23
  %.sroa.09.021 = phi ptr [ %22, %.lr.ph23 ], [ %6, %._crit_edge ]
  %14 = getelementptr inbounds nuw i8, ptr %.sroa.09.021, i64 8
  %15 = load ptr, ptr %0, align 8, !tbaa !17
  %16 = getelementptr inbounds nuw i8, ptr %15, i64 48
  %17 = load ptr, ptr %16, align 8
  call void %17(ptr noundef nonnull align 8 dereferenceable(16) %0, ptr noundef nonnull align 8 dereferenceable(8) %14)
  %18 = getelementptr inbounds nuw i8, ptr %.sroa.09.021, i64 16
  %19 = load ptr, ptr %0, align 8, !tbaa !17
  %20 = getelementptr inbounds nuw i8, ptr %19, i64 48
  %21 = load ptr, ptr %20, align 8
  call void %21(ptr noundef nonnull align 8 dereferenceable(16) %0, ptr noundef nonnull align 8 dereferenceable(8) %18)
  %22 = getelementptr inbounds nuw i8, ptr %.sroa.09.021, i64 24
  %.not16 = icmp eq ptr %22, %8
  br i1 %.not16, label %._crit_edge24, label %.lr.ph23
}